(lp0
(S'elfflags'
p1
ccopy_reg
_reconstructor
p2
(cino.utils
SpaceList
p3
c__builtin__
list
p4
(lp5
S'-Os'
p6
aS'-Wl,--gc-sections'
p7
aS'-mmcu=atmega328p'
p8
atp9
Rp10
tp11
a(S'version.txt'
p12
S'/usr/share/arduino/lib/version.txt'
p13
tp14
a(S'used_libs'
p15
(lp16
S'/usr/share/arduino/libraries/EEPROM'
p17
aS'/usr/share/arduino/hardware/arduino/cores/arduino'
p18
atp19
a(S'cc'
p20
S'/usr/bin/avr-gcc'
p21
tp22
a(S'stty'
p23
S'/bin/stty'
p24
tp25
a(S'cflags'
p26
g2
(g3
g4
(lp27
g8
aS'-ffunction-sections'
p28
aS'-fdata-sections'
p29
aS'-g'
p30
ag6
aS'-w'
p31
aS'-DF_CPU=16000000L'
p32
aS'-DARDUINO=100'
p33
aS'-I/usr/share/arduino/hardware/arduino/cores/arduino'
p34
aS'-I/usr/share/arduino/hardware/arduino/variants/standard'
p35
aS'-I/usr/share/arduino/libraries/EEPROM'
p36
aS'-I/usr/share/arduino/hardware/arduino/cores/arduino'
p37
atp38
Rp39
tp40
a(S'avrdude.conf'
p41
S'/usr/share/arduino/hardware/tools/avrdude.conf'
p42
tp43
a(S'build_dir'
p44
S'.build/alamode'
p45
tp46
a(S'arduino_core_dir'
p47
g18
tp48
a(S'boards.txt'
p49
S'/usr/share/arduino/hardware/arduino/boards.txt'
p50
tp51
a(S'cxxflags'
p52
g2
(g3
g4
(lp53
S'-fno-exceptions'
p54
atp55
Rp56
tp57
a(S'arduino_variants_dir'
p58
S'/usr/share/arduino/hardware/arduino/variants'
p59
tp60
a(S'avrdude'
p61
S'/usr/share/arduino/hardware/tools/avrdude'
p62
tp63
a(S'ar'
p64
S'/usr/bin/avr-ar'
p65
tp66
a(S'names'
p67
(dp68
S'cpp'
p69
S'%s.cpp'
p70
sS'obj'
p71
S'%s.o'
p72
sS'lib'
p73
S'lib%s.a'
p74
sS'deps'
p75
S'%s.d'
p76
stp77
a(g75
g2
(g3
g4
(lp78
S'.build/alamode/src/dependencies.d'
p79
aS'.build/alamode/arduino/dependencies.d'
p80
aS'.build/alamode/EEPROM/dependencies.d'
p81
atp82
Rp83
tp84
a(S'arduino_libraries_dir'
p85
S'/usr/share/arduino/libraries'
p86
tp87
a(S'arduino_lib_version'
p88
g2
(cino.environment
Version
p89
c__builtin__
tuple
p90
(I1
I0
tp91
tp92
Rp93
tp94
a(S'objcopy'
p95
S'/usr/bin/avr-objcopy'
p96
tp97
a(S'board_models'
p98
cino.environment
BoardModels
p99
((lp100
(lp101
S'uno'
p102
a(dp103
S'bootloader'
p104
(dp105
S'extended_fuses'
p106
S'0x05'
p107
sS'high_fuses'
p108
S'0xde'
p109
sS'low_fuses'
p110
S'0xff'
p111
sS'lock_bits'
p112
S'0x0F'
p113
sS'file'
p114
S'optiboot_atmega328.hex'
p115
sS'path'
p116
S'optiboot'
p117
sS'unlock_bits'
p118
S'0x3F'
p119
ssS'upload'
p120
(dp121
S'protocol'
p122
S'arduino'
p123
sS'maximum_size'
p124
S'32256'
p125
sS'speed'
p126
S'115200'
p127
ssS'build'
p128
(dp129
S'core'
p130
S'arduino'
p131
sS'mcu'
p132
S'atmega328p'
p133
sS'f_cpu'
p134
S'16000000L'
p135
sS'variant'
p136
S'standard'
p137
ssS'name'
p138
S'Arduino Uno'
p139
saa(lp140
S'alamode'
p141
a(dp142
S'bootloader'
p143
(dp144
S'extended_fuses'
p145
S'0x05'
p146
sS'high_fuses'
p147
S'0xde'
p148
sS'low_fuses'
p149
S'0xff'
p150
sS'lock_bits'
p151
S'0x0F'
p152
sS'file'
p153
S'optiboot_atmega328.hex'
p154
sS'path'
p155
S'optiboot'
p156
sS'unlock_bits'
p157
S'0x3F'
p158
ssS'upload'
p159
(dp160
S'protocol'
p161
S'alamode'
p162
sS'maximum_size'
p163
S'32256'
p164
sS'speed'
p165
S'115200'
p166
ssS'build'
p167
(dp168
S'core'
p169
S'arduino'
p170
sS'mcu'
p171
S'atmega328p'
p172
sS'f_cpu'
p173
S'16000000L'
p174
sS'variant'
p175
S'standard'
p176
ssS'name'
p177
S'AlaMode'
p178
saa(lp179
S'atmega328'
p180
a(dp181
S'bootloader'
p182
(dp183
S'extended_fuses'
p184
S'0x05'
p185
sS'high_fuses'
p186
S'0xDA'
p187
sS'low_fuses'
p188
S'0xFF'
p189
sS'lock_bits'
p190
S'0x0F'
p191
sS'file'
p192
S'ATmegaBOOT_168_atmega328.hex'
p193
sS'path'
p194
S'atmega'
p195
sS'unlock_bits'
p196
S'0x3F'
p197
ssS'upload'
p198
(dp199
S'protocol'
p200
S'arduino'
p201
sS'maximum_size'
p202
S'30720'
p203
sS'speed'
p204
S'57600'
p205
ssS'build'
p206
(dp207
S'core'
p208
S'arduino'
p209
sS'mcu'
p210
S'atmega328p'
p211
sS'f_cpu'
p212
S'16000000L'
p213
sS'variant'
p214
S'standard'
p215
ssS'name'
p216
S'Arduino Duemilanove w/ ATmega328'
p217
saa(lp218
S'diecimila'
p219
a(dp220
S'bootloader'
p221
(dp222
S'extended_fuses'
p223
S'0x00'
p224
sS'high_fuses'
p225
S'0xdd'
p226
sS'low_fuses'
p227
S'0xff'
p228
sS'lock_bits'
p229
S'0x0F'
p230
sS'file'
p231
S'ATmegaBOOT_168_diecimila.hex'
p232
sS'path'
p233
S'atmega'
p234
sS'unlock_bits'
p235
S'0x3F'
p236
ssS'upload'
p237
(dp238
S'protocol'
p239
S'arduino'
p240
sS'maximum_size'
p241
S'14336'
p242
sS'speed'
p243
S'19200'
p244
ssS'build'
p245
(dp246
S'core'
p247
S'arduino'
p248
sS'mcu'
p249
S'atmega168'
p250
sS'f_cpu'
p251
S'16000000L'
p252
sS'variant'
p253
S'standard'
p254
ssS'name'
p255
S'Arduino Diecimila or Duemilanove w/ ATmega168'
p256
saa(lp257
S'nano328'
p258
a(dp259
S'bootloader'
p260
(dp261
S'extended_fuses'
p262
S'0x05'
p263
sS'high_fuses'
p264
S'0xDA'
p265
sS'low_fuses'
p266
S'0xFF'
p267
sS'lock_bits'
p268
S'0x0F'
p269
sS'file'
p270
S'ATmegaBOOT_168_atmega328.hex'
p271
sS'path'
p272
S'atmega'
p273
sS'unlock_bits'
p274
S'0x3F'
p275
ssS'upload'
p276
(dp277
S'protocol'
p278
S'arduino'
p279
sS'maximum_size'
p280
S'30720'
p281
sS'speed'
p282
S'57600'
p283
ssS'build'
p284
(dp285
S'core'
p286
S'arduino'
p287
sS'mcu'
p288
S'atmega328p'
p289
sS'f_cpu'
p290
S'16000000L'
p291
sS'variant'
p292
S'eightanaloginputs'
p293
ssS'name'
p294
S'Arduino Nano w/ ATmega328'
p295
saa(lp296
S'nano'
p297
a(dp298
S'bootloader'
p299
(dp300
S'extended_fuses'
p301
S'0x00'
p302
sS'high_fuses'
p303
S'0xdd'
p304
sS'low_fuses'
p305
S'0xff'
p306
sS'lock_bits'
p307
S'0x0F'
p308
sS'file'
p309
S'ATmegaBOOT_168_diecimila.hex'
p310
sS'path'
p311
S'atmega'
p312
sS'unlock_bits'
p313
S'0x3F'
p314
ssS'upload'
p315
(dp316
S'protocol'
p317
S'arduino'
p318
sS'maximum_size'
p319
S'14336'
p320
sS'speed'
p321
S'19200'
p322
ssS'build'
p323
(dp324
S'core'
p325
S'arduino'
p326
sS'mcu'
p327
S'atmega168'
p328
sS'f_cpu'
p329
S'16000000L'
p330
sS'variant'
p331
S'eightanaloginputs'
p332
ssS'name'
p333
S'Arduino Nano w/ ATmega168'
p334
saa(lp335
S'mega2560'
p336
a(dp337
S'bootloader'
p338
(dp339
S'extended_fuses'
p340
S'0xFD'
p341
sS'high_fuses'
p342
S'0xD8'
p343
sS'low_fuses'
p344
S'0xFF'
p345
sS'lock_bits'
p346
S'0x0F'
p347
sS'file'
p348
S'stk500boot_v2_mega2560.hex'
p349
sS'path'
p350
S'stk500v2'
p351
sS'unlock_bits'
p352
S'0x3F'
p353
ssS'upload'
p354
(dp355
S'protocol'
p356
S'stk500v2'
p357
sS'maximum_size'
p358
S'258048'
p359
sS'speed'
p360
S'115200'
p361
ssS'build'
p362
(dp363
S'core'
p364
S'arduino'
p365
sS'mcu'
p366
S'atmega2560'
p367
sS'f_cpu'
p368
S'16000000L'
p369
sS'variant'
p370
S'mega'
p371
ssS'name'
p372
S'Arduino Mega 2560 or Mega ADK'
p373
saa(lp374
S'mega'
p375
a(dp376
S'bootloader'
p377
(dp378
S'extended_fuses'
p379
S'0xF5'
p380
sS'high_fuses'
p381
S'0xDA'
p382
sS'low_fuses'
p383
S'0xFF'
p384
sS'lock_bits'
p385
S'0x0F'
p386
sS'file'
p387
S'ATmegaBOOT_168_atmega1280.hex'
p388
sS'path'
p389
S'atmega'
p390
sS'unlock_bits'
p391
S'0x3F'
p392
ssS'upload'
p393
(dp394
S'protocol'
p395
S'arduino'
p396
sS'maximum_size'
p397
S'126976'
p398
sS'speed'
p399
S'57600'
p400
ssS'build'
p401
(dp402
S'core'
p403
S'arduino'
p404
sS'mcu'
p405
S'atmega1280'
p406
sS'f_cpu'
p407
S'16000000L'
p408
sS'variant'
p409
S'mega'
p410
ssS'name'
p411
S'Arduino Mega (ATmega1280)'
p412
saa(lp413
S'mini328'
p414
a(dp415
S'bootloader'
p416
(dp417
S'extended_fuses'
p418
S'0x05'
p419
sS'high_fuses'
p420
S'0xd8'
p421
sS'low_fuses'
p422
S'0xff'
p423
sS'lock_bits'
p424
S'0x0F'
p425
sS'file'
p426
S'optiboot_atmega328-Mini.hex'
p427
sS'path'
p428
S'optiboot'
p429
sS'unlock_bits'
p430
S'0x3F'
p431
ssS'upload'
p432
(dp433
S'protocol'
p434
S'stk500'
p435
sS'maximum_size'
p436
S'28672'
p437
sS'speed'
p438
S'115200'
p439
ssS'build'
p440
(dp441
S'core'
p442
S'arduino'
p443
sS'mcu'
p444
S'atmega328p'
p445
sS'f_cpu'
p446
S'16000000L'
p447
sS'variant'
p448
S'eightanaloginputs'
p449
ssS'name'
p450
S'Arduino Mini w/ ATmega328'
p451
saa(lp452
S'mini'
p453
a(dp454
S'bootloader'
p455
(dp456
S'extended_fuses'
p457
S'0x00'
p458
sS'high_fuses'
p459
S'0xdd'
p460
sS'low_fuses'
p461
S'0xff'
p462
sS'lock_bits'
p463
S'0x0F'
p464
sS'file'
p465
S'ATmegaBOOT_168_ng.hex'
p466
sS'path'
p467
S'atmega'
p468
sS'unlock_bits'
p469
S'0x3F'
p470
ssS'upload'
p471
(dp472
S'protocol'
p473
S'arduino'
p474
sS'maximum_size'
p475
S'14336'
p476
sS'speed'
p477
S'19200'
p478
ssS'build'
p479
(dp480
S'core'
p481
S'arduino'
p482
sS'mcu'
p483
S'atmega168'
p484
sS'f_cpu'
p485
S'16000000L'
p486
sS'variant'
p487
S'eightanaloginputs'
p488
ssS'name'
p489
S'Arduino Mini w/ ATmega168'
p490
saa(lp491
S'ethernet'
p492
a(dp493
S'bootloader'
p494
(dp495
S'extended_fuses'
p496
S'0x05'
p497
sS'high_fuses'
p498
S'0xde'
p499
sS'low_fuses'
p500
S'0xff'
p501
sS'lock_bits'
p502
S'0x0F'
p503
sS'file'
p504
S'optiboot_atmega328.hex'
p505
sS'path'
p506
S'optiboot'
p507
sS'unlock_bits'
p508
S'0x3F'
p509
ssS'upload'
p510
(dp511
S'protocol'
p512
S'arduino'
p513
sS'maximum_size'
p514
S'32256'
p515
sS'speed'
p516
S'115200'
p517
ssS'build'
p518
(dp519
S'variant'
p520
S'standard'
p521
sS'mcu'
p522
S'atmega328p'
p523
sS'f_cpu'
p524
S'16000000L'
p525
sS'core'
p526
S'arduino'
p527
ssS'name'
p528
S'Arduino Ethernet'
p529
saa(lp530
S'fio'
p531
a(dp532
S'bootloader'
p533
(dp534
S'extended_fuses'
p535
S'0x05'
p536
sS'high_fuses'
p537
S'0xDA'
p538
sS'low_fuses'
p539
S'0xFF'
p540
sS'lock_bits'
p541
S'0x0F'
p542
sS'file'
p543
S'ATmegaBOOT_168_atmega328_pro_8MHz.hex'
p544
sS'path'
p545
S'arduino:atmega'
p546
sS'unlock_bits'
p547
S'0x3F'
p548
ssS'upload'
p549
(dp550
S'protocol'
p551
S'arduino'
p552
sS'maximum_size'
p553
S'30720'
p554
sS'speed'
p555
S'57600'
p556
ssS'build'
p557
(dp558
S'core'
p559
S'arduino'
p560
sS'mcu'
p561
S'atmega328p'
p562
sS'f_cpu'
p563
S'8000000L'
p564
sS'variant'
p565
S'eightanaloginputs'
p566
ssS'name'
p567
S'Arduino Fio'
p568
saa(lp569
S'bt328'
p570
a(dp571
S'bootloader'
p572
(dp573
S'extended_fuses'
p574
S'0x05'
p575
sS'high_fuses'
p576
S'0xd8'
p577
sS'low_fuses'
p578
S'0xff'
p579
sS'lock_bits'
p580
S'0x0F'
p581
sS'file'
p582
S'ATmegaBOOT_168_atmega328_bt.hex'
p583
sS'path'
p584
S'bt'
p585
sS'unlock_bits'
p586
S'0x3F'
p587
ssS'upload'
p588
(dp589
S'protocol'
p590
S'arduino'
p591
sS'maximum_size'
p592
S'28672'
p593
sS'speed'
p594
S'19200'
p595
sS'disable_flushing'
p596
S'true'
p597
ssS'build'
p598
(dp599
S'core'
p600
S'arduino'
p601
sS'mcu'
p602
S'atmega328p'
p603
sS'f_cpu'
p604
S'16000000L'
p605
sS'variant'
p606
S'eightanaloginputs'
p607
ssS'name'
p608
S'Arduino BT w/ ATmega328'
p609
saa(lp610
S'bt'
p611
a(dp612
S'bootloader'
p613
(dp614
S'extended_fuses'
p615
S'0x00'
p616
sS'high_fuses'
p617
S'0xdd'
p618
sS'low_fuses'
p619
S'0xff'
p620
sS'lock_bits'
p621
S'0x0F'
p622
sS'file'
p623
S'ATmegaBOOT_168.hex'
p624
sS'path'
p625
S'bt'
p626
sS'unlock_bits'
p627
S'0x3F'
p628
ssS'upload'
p629
(dp630
S'protocol'
p631
S'arduino'
p632
sS'maximum_size'
p633
S'14336'
p634
sS'speed'
p635
S'19200'
p636
sS'disable_flushing'
p637
S'true'
p638
ssS'build'
p639
(dp640
S'core'
p641
S'arduino'
p642
sS'mcu'
p643
S'atmega168'
p644
sS'f_cpu'
p645
S'16000000L'
p646
sS'variant'
p647
S'eightanaloginputs'
p648
ssS'name'
p649
S'Arduino BT w/ ATmega168'
p650
saa(lp651
S'lilypad328'
p652
a(dp653
S'bootloader'
p654
(dp655
S'extended_fuses'
p656
S'0x05'
p657
sS'high_fuses'
p658
S'0xDA'
p659
sS'low_fuses'
p660
S'0xFF'
p661
sS'lock_bits'
p662
S'0x0F'
p663
sS'file'
p664
S'ATmegaBOOT_168_atmega328_pro_8MHz.hex'
p665
sS'path'
p666
S'atmega'
p667
sS'unlock_bits'
p668
S'0x3F'
p669
ssS'upload'
p670
(dp671
S'protocol'
p672
S'arduino'
p673
sS'maximum_size'
p674
S'30720'
p675
sS'speed'
p676
S'57600'
p677
ssS'build'
p678
(dp679
S'core'
p680
S'arduino'
p681
sS'mcu'
p682
S'atmega328p'
p683
sS'f_cpu'
p684
S'8000000L'
p685
sS'variant'
p686
S'standard'
p687
ssS'name'
p688
S'LilyPad Arduino w/ ATmega328'
p689
saa(lp690
S'lilypad'
p691
a(dp692
S'bootloader'
p693
(dp694
S'extended_fuses'
p695
S'0x00'
p696
sS'high_fuses'
p697
S'0xdd'
p698
sS'low_fuses'
p699
S'0xe2'
p700
sS'lock_bits'
p701
S'0x0F'
p702
sS'file'
p703
S'LilyPadBOOT_168.hex'
p704
sS'path'
p705
S'lilypad'
p706
sS'unlock_bits'
p707
S'0x3F'
p708
ssS'upload'
p709
(dp710
S'protocol'
p711
S'arduino'
p712
sS'maximum_size'
p713
S'14336'
p714
sS'speed'
p715
S'19200'
p716
ssS'build'
p717
(dp718
S'core'
p719
S'arduino'
p720
sS'mcu'
p721
S'atmega168'
p722
sS'f_cpu'
p723
S'8000000L'
p724
sS'variant'
p725
S'standard'
p726
ssS'name'
p727
S'LilyPad Arduino w/ ATmega168'
p728
saa(lp729
S'pro5v328'
p730
a(dp731
S'bootloader'
p732
(dp733
S'extended_fuses'
p734
S'0x05'
p735
sS'high_fuses'
p736
S'0xDA'
p737
sS'low_fuses'
p738
S'0xFF'
p739
sS'lock_bits'
p740
S'0x0F'
p741
sS'file'
p742
S'ATmegaBOOT_168_atmega328.hex'
p743
sS'path'
p744
S'atmega'
p745
sS'unlock_bits'
p746
S'0x3F'
p747
ssS'upload'
p748
(dp749
S'protocol'
p750
S'arduino'
p751
sS'maximum_size'
p752
S'30720'
p753
sS'speed'
p754
S'57600'
p755
ssS'build'
p756
(dp757
S'core'
p758
S'arduino'
p759
sS'mcu'
p760
S'atmega328p'
p761
sS'f_cpu'
p762
S'16000000L'
p763
sS'variant'
p764
S'standard'
p765
ssS'name'
p766
S'Arduino Pro or Pro Mini (5V, 16 MHz) w/ ATmega328'
p767
saa(lp768
S'pro5v'
p769
a(dp770
S'bootloader'
p771
(dp772
S'extended_fuses'
p773
S'0x00'
p774
sS'high_fuses'
p775
S'0xdd'
p776
sS'low_fuses'
p777
S'0xff'
p778
sS'lock_bits'
p779
S'0x0F'
p780
sS'file'
p781
S'ATmegaBOOT_168_diecimila.hex'
p782
sS'path'
p783
S'atmega'
p784
sS'unlock_bits'
p785
S'0x3F'
p786
ssS'upload'
p787
(dp788
S'protocol'
p789
S'arduino'
p790
sS'maximum_size'
p791
S'14336'
p792
sS'speed'
p793
S'19200'
p794
ssS'build'
p795
(dp796
S'core'
p797
S'arduino'
p798
sS'mcu'
p799
S'atmega168'
p800
sS'f_cpu'
p801
S'16000000L'
p802
sS'variant'
p803
S'standard'
p804
ssS'name'
p805
S'Arduino Pro or Pro Mini (5V, 16 MHz) w/ ATmega168'
p806
saa(lp807
S'pro328'
p808
a(dp809
S'bootloader'
p810
(dp811
S'extended_fuses'
p812
S'0x05'
p813
sS'high_fuses'
p814
S'0xDA'
p815
sS'low_fuses'
p816
S'0xFF'
p817
sS'lock_bits'
p818
S'0x0F'
p819
sS'file'
p820
S'ATmegaBOOT_168_atmega328_pro_8MHz.hex'
p821
sS'path'
p822
S'atmega'
p823
sS'unlock_bits'
p824
S'0x3F'
p825
ssS'upload'
p826
(dp827
S'protocol'
p828
S'arduino'
p829
sS'maximum_size'
p830
S'30720'
p831
sS'speed'
p832
S'57600'
p833
ssS'build'
p834
(dp835
S'core'
p836
S'arduino'
p837
sS'mcu'
p838
S'atmega328p'
p839
sS'f_cpu'
p840
S'8000000L'
p841
sS'variant'
p842
S'standard'
p843
ssS'name'
p844
S'Arduino Pro or Pro Mini (3.3V, 8 MHz) w/ ATmega328'
p845
saa(lp846
S'pro'
p847
a(dp848
S'bootloader'
p849
(dp850
S'extended_fuses'
p851
S'0x00'
p852
sS'high_fuses'
p853
S'0xdd'
p854
sS'low_fuses'
p855
S'0xc6'
p856
sS'lock_bits'
p857
S'0x0F'
p858
sS'file'
p859
S'ATmegaBOOT_168_pro_8MHz.hex'
p860
sS'path'
p861
S'atmega'
p862
sS'unlock_bits'
p863
S'0x3F'
p864
ssS'upload'
p865
(dp866
S'protocol'
p867
S'arduino'
p868
sS'maximum_size'
p869
S'14336'
p870
sS'speed'
p871
S'19200'
p872
ssS'build'
p873
(dp874
S'core'
p875
S'arduino'
p876
sS'mcu'
p877
S'atmega168'
p878
sS'f_cpu'
p879
S'8000000L'
p880
sS'variant'
p881
S'standard'
p882
ssS'name'
p883
S'Arduino Pro or Pro Mini (3.3V, 8 MHz) w/ ATmega168'
p884
saa(lp885
S'atmega168'
p886
a(dp887
S'bootloader'
p888
(dp889
S'extended_fuses'
p890
S'0x00'
p891
sS'high_fuses'
p892
S'0xdd'
p893
sS'low_fuses'
p894
S'0xff'
p895
sS'lock_bits'
p896
S'0x0F'
p897
sS'file'
p898
S'ATmegaBOOT_168_ng.hex'
p899
sS'path'
p900
S'atmega'
p901
sS'unlock_bits'
p902
S'0x3F'
p903
ssS'upload'
p904
(dp905
S'protocol'
p906
S'arduino'
p907
sS'maximum_size'
p908
S'14336'
p909
sS'speed'
p910
S'19200'
p911
ssS'build'
p912
(dp913
S'core'
p914
S'arduino'
p915
sS'mcu'
p916
S'atmega168'
p917
sS'f_cpu'
p918
S'16000000L'
p919
sS'variant'
p920
S'standard'
p921
ssS'name'
p922
S'Arduino NG or older w/ ATmega168'
p923
saa(lp924
S'atmega8'
p925
a(dp926
S'bootloader'
p927
(dp928
S'high_fuses'
p929
S'0xca'
p930
sS'low_fuses'
p931
S'0xdf'
p932
sS'lock_bits'
p933
S'0x0F'
p934
sS'file'
p935
S'ATmegaBOOT.hex'
p936
sS'path'
p937
S'atmega8'
p938
sS'unlock_bits'
p939
S'0x3F'
p940
ssS'upload'
p941
(dp942
S'protocol'
p943
S'arduino'
p944
sS'maximum_size'
p945
S'7168'
p946
sS'speed'
p947
S'19200'
p948
ssS'build'
p949
(dp950
S'core'
p951
S'arduino'
p952
sS'mcu'
p953
S'atmega8'
p954
sS'f_cpu'
p955
S'16000000L'
p956
sS'variant'
p957
S'standard'
p958
ssS'name'
p959
S'Arduino NG or older w/ ATmega8'
p960
saatp961
Rp962
(dp963
S'default'
p964
S'uno'
p965
sbtp966
a(S'cxx'
p967
S'/usr/bin/avr-g++'
p968
tp969
a.